target datalayout = "e-m:e-p270:32:32-p271:32:32-p272:64:64-i64:64-i128:128-f80:128-n8:16:32:64-S128"
target triple = "x86_64-pc-linux-gnu"

%"class.clang::SourceLocation" = type { i32 }
%"class.clang::AttributeCommonInfo" = type { ptr, ptr, %"class.clang::SourceRange", %"class.clang::SourceLocation", i32 }
%"class.clang::SourceRange" = type { %"class.clang::SourceLocation", %"class.clang::SourceLocation" }

; Function Attrs: mustprogress nounwind uwtable
define linkonce_odr hidden noundef zeroext i1 @_ZNK5clang19AttributeCommonInfo33isAttributeSpellingListCalculatedEv(ptr noundef nonnull align 8 dereferenceable(32) %0) #0 comdat align 2 {
  %2 = alloca ptr, align 8
  store ptr %0, ptr %2, align 8
  %3 = load ptr, ptr %2, align 8
  %4 = getelementptr inbounds nuw %"class.clang::AttributeCommonInfo", ptr %3, i32 0, i32 4
  %5 = load i32, ptr %4, align 4
  %6 = lshr i32 %5, 20
  %7 = and i32 %6, 15
  %8 = icmp ne i32 %7, 15
  ret i1 %8
}

; Function Attrs: mustprogress nounwind uwtable
define linkonce_odr hidden noundef i32 @_ZNK5clang19AttributeCommonInfo29getAttributeSpellingListIndexEv(ptr noundef nonnull align 8 dereferenceable(32) %0) #0 comdat align 2 {
  %2 = alloca ptr, align 8
  store ptr %0, ptr %2, align 8
  %3 = load ptr, ptr %2, align 8
  %4 = call noundef zeroext i1 @_ZNK5clang19AttributeCommonInfo33isAttributeSpellingListCalculatedEv(ptr noundef nonnull align 8 dereferenceable(32) %3)
  br i1 %4, label %5, label %10

5:                                                ; preds = %1
  %6 = getelementptr inbounds nuw %"class.clang::AttributeCommonInfo", ptr %3, i32 0, i32 4
  %7 = load i32, ptr %6, align 4
  %8 = lshr i32 %7, 20
  %9 = and i32 %8, 15
  br label %12

10:                                               ; preds = %1
  %11 = call noundef i32 @_ZNK5clang19AttributeCommonInfo35calculateAttributeSpellingListIndexEv(ptr noundef nonnull align 8 dereferenceable(32) %3)
  br label %12

12:                                               ; preds = %10, %5
  %13 = phi i32 [ %9, %5 ], [ %11, %10 ]
  ret i32 %13
}

; Function Attrs: mustprogress nounwind uwtable
define internal noundef i32 @_ZNK12_GLOBAL__N_122ParsedAttrInfoLoopHint31spellingIndexToSemanticSpellingERKN5clang10ParsedAttrE(ptr noundef nonnull align 8 dereferenceable(48) %0, ptr noundef nonnull align 8 dereferenceable(72) %1) unnamed_addr #0 align 2 {
  %3 = alloca i32, align 4
  %4 = alloca ptr, align 8
  %5 = alloca ptr, align 8
  %6 = alloca i32, align 4
  store ptr %0, ptr %4, align 8
  store ptr %1, ptr %5, align 8
  %7 = load ptr, ptr %5, align 8
  %8 = call noundef i32 @_ZNK5clang19AttributeCommonInfo29getAttributeSpellingListIndexEv(ptr noundef nonnull align 8 dereferenceable(32) %7)
  store i32 %8, ptr %6, align 4
  %9 = load i32, ptr %6, align 4
  switch i32 %9, label %10 [
    i32 0, label %11
    i32 1, label %12
    i32 2, label %13
    i32 3, label %14
    i32 4, label %15
  ]

10:                                               ; preds = %2
  unreachable

11:                                               ; preds = %2
  store i32 0, ptr %3, align 4
  br label %16

12:                                               ; preds = %2
  store i32 1, ptr %3, align 4
  br label %16

13:                                               ; preds = %2
  store i32 2, ptr %3, align 4
  br label %16

14:                                               ; preds = %2
  store i32 3, ptr %3, align 4
  br label %16

15:                                               ; preds = %2
  store i32 4, ptr %3, align 4
  br label %16

16:                                               ; preds = %15, %14, %13, %12, %11
  %17 = load i32, ptr %3, align 4
  ret i32 %17
}